target datalayout = "e-m:e-p270:32:32-p271:32:32-p272:64:64-i64:64-i128:128-f80:128-n8:16:32:64-S128"
target triple = "x86_64-pc-linux-gnu"

%struct.used_atom = type { i32, ptr, i32, i32, %union.anon }
%union.anon = type { %struct.anon.1 }
%struct.anon.1 = type { i32, %struct.process_trailer_options, ptr, i32 }
%struct.process_trailer_options = type { i32, i32, i32, i32, i32, i32, i32, i32, ptr, ptr, ptr, ptr }
%struct.atom_value = type { ptr, i64, ptr, i64, ptr }
%struct.anon.4 = type { i32, i32 }

@the_repository = external global ptr, align 8
@.str.16 = private unnamed_addr constant [13 x i8] c"ref-filter.c\00", align 1
@default_abbrev = external global i32, align 4
@.str.171 = private unnamed_addr constant [22 x i8] c"unknown %%(%s) option\00", align 1

; Function Attrs: nounwind uwtable
define internal ptr @do_grab_oid(ptr noundef %0, ptr noundef %1, ptr noundef %2) #0 {
  %4 = alloca ptr, align 8
  %5 = alloca ptr, align 8
  %6 = alloca ptr, align 8
  %7 = alloca ptr, align 8
  store ptr %0, ptr %5, align 8, !tbaa !13
  store ptr %1, ptr %6, align 8, !tbaa !68
  store ptr %2, ptr %7, align 8, !tbaa !26
  %8 = load ptr, ptr %7, align 8, !tbaa !26
  %9 = getelementptr inbounds nuw %struct.used_atom, ptr %8, i32 0, i32 4
  %10 = getelementptr inbounds nuw %struct.anon.4, ptr %9, i32 0, i32 0
  %11 = load i32, ptr %10, align 8, !tbaa !14
  switch i32 %11, label %28 [
    i32 0, label %12
    i32 1, label %15
    i32 2, label %23
  ]

12:                                               ; preds = %3
  %13 = load ptr, ptr %6, align 8, !tbaa !68
  %14 = call ptr @oid_to_hex(ptr noundef %13)
  store ptr %14, ptr %4, align 8
  br label %30

15:                                               ; preds = %3
  %16 = load ptr, ptr @the_repository, align 8, !tbaa !56
  %17 = load ptr, ptr %6, align 8, !tbaa !68
  %18 = load ptr, ptr %7, align 8, !tbaa !26
  %19 = getelementptr inbounds nuw %struct.used_atom, ptr %18, i32 0, i32 4
  %20 = getelementptr inbounds nuw %struct.anon.4, ptr %19, i32 0, i32 1
  %21 = load i32, ptr %20, align 4, !tbaa !14
  %22 = call ptr @repo_find_unique_abbrev(ptr noundef %16, ptr noundef %17, i32 noundef %21)
  store ptr %22, ptr %4, align 8
  br label %30

23:                                               ; preds = %3
  %24 = load ptr, ptr @the_repository, align 8, !tbaa !56
  %25 = load ptr, ptr %6, align 8, !tbaa !68
  %26 = load i32, ptr @default_abbrev, align 4, !tbaa !15
  %27 = call ptr @repo_find_unique_abbrev(ptr noundef %24, ptr noundef %25, i32 noundef %26)
  store ptr %27, ptr %4, align 8
  br label %30

28:                                               ; preds = %3
  %29 = load ptr, ptr %5, align 8, !tbaa !13
  call void (ptr, i32, ptr, ...) @BUG_fl(ptr noundef @.str.16, i32 noundef 1434, ptr noundef @.str.171, ptr noundef %29) #13
  unreachable

30:                                               ; preds = %23, %15, %12
  %31 = load ptr, ptr %4, align 8
  ret ptr %31
}

; Function Attrs: nounwind uwtable
define internal i32 @grab_oid(ptr noundef %0, ptr noundef %1, ptr noundef %2, ptr noundef %3, ptr noundef %4) #0 {
  %6 = alloca i32, align 4
  %7 = alloca ptr, align 8
  %8 = alloca ptr, align 8
  %9 = alloca ptr, align 8
  %10 = alloca ptr, align 8
  %11 = alloca ptr, align 8
  store ptr %0, ptr %7, align 8, !tbaa !13
  store ptr %1, ptr %8, align 8, !tbaa !13
  store ptr %2, ptr %9, align 8, !tbaa !68
  store ptr %3, ptr %10, align 8, !tbaa !89
  store ptr %4, ptr %11, align 8, !tbaa !26
  %12 = load ptr, ptr %7, align 8, !tbaa !13
  %13 = load ptr, ptr %8, align 8, !tbaa !13
  %14 = call i32 @starts_with(ptr noundef %12, ptr noundef %13)
  %15 = icmp ne i32 %14, 0
  br i1 %15, label %16, label %24

16:                                               ; preds = %5
  %17 = load ptr, ptr %8, align 8, !tbaa !13
  %18 = load ptr, ptr %9, align 8, !tbaa !68
  %19 = load ptr, ptr %11, align 8, !tbaa !26
  %20 = call ptr @do_grab_oid(ptr noundef %17, ptr noundef %18, ptr noundef %19)
  %21 = call ptr @xstrdup(ptr noundef %20)
  %22 = load ptr, ptr %10, align 8, !tbaa !89
  %23 = getelementptr inbounds nuw %struct.atom_value, ptr %22, i32 0, i32 0
  store ptr %21, ptr %23, align 8, !tbaa !91
  store i32 1, ptr %6, align 4
  br label %25

24:                                               ; preds = %5
  store i32 0, ptr %6, align 4
  br label %25

25:                                               ; preds = %24, %16
  %26 = load i32, ptr %6, align 4
  ret i32 %26
}