; Function Attrs: nounwind uwtable
define internal fastcc void @grab_oid(ptr noundef %0, ptr noundef %1, ptr noundef %2, ptr noundef writeonly captures(none) %3, ptr noundef readonly captures(none) %4) unnamed_addr #0 {
  %6 = tail call i32 @starts_with(ptr noundef %0, ptr noundef %1) #23
  %.not = icmp eq i32 %6, 0
  br i1 %.not, label %23, label %7

7:                                                ; preds = %5
  %8 = getelementptr inbounds nuw i8, ptr %4, i64 24
  %9 = load i32, ptr %8, align 8, !tbaa !15
  switch i32 %9, label %21 [
    i32 0, label %10
    i32 1, label %12
    i32 2, label %17
  ]

10:                                               ; preds = %7
  %11 = tail call ptr @oid_to_hex(ptr noundef %2) #23
  br label %do_grab_oid.exit

12:                                               ; preds = %7
  %13 = load ptr, ptr @the_repository, align 8, !tbaa !49
  %14 = getelementptr inbounds nuw i8, ptr %4, i64 28
  %15 = load i32, ptr %14, align 4, !tbaa !15
  %16 = tail call ptr @repo_find_unique_abbrev(ptr noundef %13, ptr noundef %2, i32 noundef %15) #23
  br label %do_grab_oid.exit

17:                                               ; preds = %7
  %18 = load ptr, ptr @the_repository, align 8, !tbaa !49
  %19 = load i32, ptr @default_abbrev, align 4, !tbaa !4
  %20 = tail call ptr @repo_find_unique_abbrev(ptr noundef %18, ptr noundef %2, i32 noundef %19) #23
  br label %do_grab_oid.exit

21:                                               ; preds = %7
  tail call void (ptr, i32, ptr, ...) @BUG_fl(ptr noundef nonnull @.str.16, i32 noundef 1434, ptr noundef nonnull @.str.171, ptr noundef %1) #25
  unreachable

do_grab_oid.exit:                                 ; preds = %10, %12, %17
  %.0.i = phi ptr [ %20, %17 ], [ %16, %12 ], [ %11, %10 ]
  %22 = tail call ptr @xstrdup(ptr noundef %.0.i) #23
  store ptr %22, ptr %3, align 8, !tbaa !79
  br label %23

23:                                               ; preds = %5, %do_grab_oid.exit
  ret void
}